target datalayout = "e-m:e-p270:32:32-p271:32:32-p272:64:64-i64:64-i128:128-f80:128-n8:16:32:64-S128"
target triple = "x86_64-pc-linux-gnu"

%struct.b2Vec2 = type { float, float }
%struct.b2BodyArray = type { ptr, i32, i32 }
%struct.b2World = type { %struct.b2ArenaAllocator, %struct.b2BroadPhase, %struct.b2ConstraintGraph, %struct.b2IdPool, %struct.b2BodyArray, %struct.b2IdPool, %struct.b2SolverSetArray, %struct.b2IdPool, %struct.b2JointArray, %struct.b2IdPool, %struct.b2ContactArray, %struct.b2IdPool, %struct.b2IslandArray, %struct.b2IdPool, %struct.b2IdPool, %struct.b2ShapeArray, %struct.b2ChainShapeArray, %struct.b2SensorArray, %struct.b2TaskContextArray, %struct.b2SensorTaskContextArray, %struct.b2BodyMoveEventArray, %struct.b2SensorBeginTouchEventArray, %struct.b2ContactBeginTouchEventArray, [2 x %struct.b2SensorEndTouchEventArray], [2 x %struct.b2ContactEndTouchEventArray], i32, %struct.b2ContactHitEventArray, %struct.b2BitSet, %struct.b2BitSet, %struct.b2BitSet, i64, i32, %struct.b2Vec2, float, float, float, float, float, float, float, float, ptr, ptr, i16, %struct.b2Profile, ptr, ptr, ptr, ptr, i32, ptr, ptr, ptr, ptr, ptr, float, i32, i32, i16, i8, i8, i8, i8, i8, i8 }
%struct.b2ArenaAllocator = type { ptr, i32, i32, i32, i32, %struct.b2ArenaEntryArray }
%struct.b2ArenaEntryArray = type { ptr, i32, i32 }
%struct.b2BroadPhase = type { [3 x %struct.b2DynamicTree], i32, %struct.b2HashSet, %struct.b2IntArray, ptr, ptr, i32, %struct.b2AtomicInt, %struct.b2HashSet }
%struct.b2DynamicTree = type { ptr, i32, i32, i32, i32, i32, ptr, ptr, ptr, ptr, i32 }
%struct.b2IntArray = type { ptr, i32, i32 }
%struct.b2AtomicInt = type { i32 }
%struct.b2HashSet = type { ptr, i32, i32 }
%struct.b2ConstraintGraph = type { [12 x %struct.b2GraphColor] }
%struct.b2GraphColor = type { %struct.b2BitSet, %struct.b2ContactSimArray, %struct.b2JointSimArray, %union.anon }
%struct.b2ContactSimArray = type { ptr, i32, i32 }
%struct.b2JointSimArray = type { ptr, i32, i32 }
%union.anon = type { ptr }
%struct.b2SolverSetArray = type { ptr, i32, i32 }
%struct.b2JointArray = type { ptr, i32, i32 }
%struct.b2ContactArray = type { ptr, i32, i32 }
%struct.b2IslandArray = type { ptr, i32, i32 }
%struct.b2IdPool = type { %struct.b2IntArray, i32 }
%struct.b2ShapeArray = type { ptr, i32, i32 }
%struct.b2ChainShapeArray = type { ptr, i32, i32 }
%struct.b2SensorArray = type { ptr, i32, i32 }
%struct.b2TaskContextArray = type { ptr, i32, i32 }
%struct.b2SensorTaskContextArray = type { ptr, i32, i32 }
%struct.b2BodyMoveEventArray = type { ptr, i32, i32 }
%struct.b2SensorBeginTouchEventArray = type { ptr, i32, i32 }
%struct.b2ContactBeginTouchEventArray = type { ptr, i32, i32 }
%struct.b2SensorEndTouchEventArray = type { ptr, i32, i32 }
%struct.b2ContactEndTouchEventArray = type { ptr, i32, i32 }
%struct.b2ContactHitEventArray = type { ptr, i32, i32 }
%struct.b2BitSet = type { ptr, i32, i32 }
%struct.b2Profile = type { float, float, float, float, float, float, float, float, float, float, float, float, float, float, float, float, float, float, float, float, float, float }
%struct.b2Body = type { [32 x i8], ptr, i32, i32, i32, i32, i32, i32, i32, i32, i32, i32, i32, i32, float, float, float, float, i32, i32, i32, i16, i8, i8, i8, i8 }
%struct.b2Joint = type { ptr, i32, i32, i32, [2 x %struct.b2JointEdge], i32, i32, i32, i32, float, i32, i16, i8, i8 }
%struct.b2JointEdge = type { i32, i32, i32 }

; Function Attrs: inlinehint nounwind uwtable
define internal ptr @b2JointArray_Get(ptr noundef %0, i32 noundef %1) #3 {
  %3 = alloca ptr, align 8
  %4 = alloca i32, align 4
  store ptr %0, ptr %3, align 8, !tbaa !12
  store i32 %1, ptr %4, align 4, !tbaa !3
  %5 = load ptr, ptr %3, align 8, !tbaa !12
  %6 = getelementptr inbounds nuw %struct.b2JointArray, ptr %5, i32 0, i32 0
  %7 = load ptr, ptr %6, align 8, !tbaa !205
  %8 = load i32, ptr %4, align 4, !tbaa !3
  %9 = sext i32 %8 to i64
  %10 = getelementptr inbounds %struct.b2Joint, ptr %7, i64 %9
  ret ptr %10
}

; Function Attrs: nounwind uwtable
define hidden zeroext i1 @b2ShouldBodiesCollide(ptr noundef %0, ptr noundef %1, ptr noundef %2) #0 {
  %4 = alloca i1, align 1
  %5 = alloca ptr, align 8
  %6 = alloca ptr, align 8
  %7 = alloca ptr, align 8
  %8 = alloca i32, align 4
  %9 = alloca i32, align 4
  %10 = alloca i32, align 4
  %11 = alloca i32, align 4
  %12 = alloca i32, align 4
  %13 = alloca ptr, align 8
  %14 = alloca i32, align 4
  store ptr %0, ptr %5, align 8, !tbaa !24
  store ptr %1, ptr %6, align 8, !tbaa !29
  store ptr %2, ptr %7, align 8, !tbaa !29
  %15 = load ptr, ptr %6, align 8, !tbaa !29
  %16 = getelementptr inbounds nuw %struct.b2Body, ptr %15, i32 0, i32 20
  %17 = load i32, ptr %16, align 8, !tbaa !167
  %18 = icmp ne i32 %17, 2
  br i1 %18, label %19, label %25

19:                                               ; preds = %3
  %20 = load ptr, ptr %7, align 8, !tbaa !29
  %21 = getelementptr inbounds nuw %struct.b2Body, ptr %20, i32 0, i32 20
  %22 = load i32, ptr %21, align 8, !tbaa !167
  %23 = icmp ne i32 %22, 2
  br i1 %23, label %24, label %25

24:                                               ; preds = %19
  store i1 false, ptr %4, align 1
  br label %92

25:                                               ; preds = %19, %3
  call void @llvm.lifetime.start.p0(i64 4, ptr %8) #8
  call void @llvm.lifetime.start.p0(i64 4, ptr %9) #8
  %26 = load ptr, ptr %6, align 8, !tbaa !29
  %27 = getelementptr inbounds nuw %struct.b2Body, ptr %26, i32 0, i32 10
  %28 = load i32, ptr %27, align 8, !tbaa !156
  %29 = load ptr, ptr %7, align 8, !tbaa !29
  %30 = getelementptr inbounds nuw %struct.b2Body, ptr %29, i32 0, i32 10
  %31 = load i32, ptr %30, align 8, !tbaa !156
  %32 = icmp slt i32 %28, %31
  br i1 %32, label %33, label %40

33:                                               ; preds = %25
  %34 = load ptr, ptr %6, align 8, !tbaa !29
  %35 = getelementptr inbounds nuw %struct.b2Body, ptr %34, i32 0, i32 9
  %36 = load i32, ptr %35, align 4, !tbaa !155
  store i32 %36, ptr %8, align 4, !tbaa !3
  %37 = load ptr, ptr %7, align 8, !tbaa !29
  %38 = getelementptr inbounds nuw %struct.b2Body, ptr %37, i32 0, i32 19
  %39 = load i32, ptr %38, align 4, !tbaa !161
  store i32 %39, ptr %9, align 4, !tbaa !3
  br label %47

40:                                               ; preds = %25
  %41 = load ptr, ptr %7, align 8, !tbaa !29
  %42 = getelementptr inbounds nuw %struct.b2Body, ptr %41, i32 0, i32 9
  %43 = load i32, ptr %42, align 4, !tbaa !155
  store i32 %43, ptr %8, align 4, !tbaa !3
  %44 = load ptr, ptr %6, align 8, !tbaa !29
  %45 = getelementptr inbounds nuw %struct.b2Body, ptr %44, i32 0, i32 19
  %46 = load i32, ptr %45, align 4, !tbaa !161
  store i32 %46, ptr %9, align 4, !tbaa !3
  br label %47

47:                                               ; preds = %40, %33
  br label %48

48:                                               ; preds = %89, %47
  %49 = load i32, ptr %8, align 4, !tbaa !3
  %50 = icmp ne i32 %49, -1
  br i1 %50, label %51, label %90

51:                                               ; preds = %48
  call void @llvm.lifetime.start.p0(i64 4, ptr %10) #8
  %52 = load i32, ptr %8, align 4, !tbaa !3
  %53 = ashr i32 %52, 1
  store i32 %53, ptr %10, align 4, !tbaa !3
  call void @llvm.lifetime.start.p0(i64 4, ptr %11) #8
  %54 = load i32, ptr %8, align 4, !tbaa !3
  %55 = and i32 %54, 1
  store i32 %55, ptr %11, align 4, !tbaa !3
  call void @llvm.lifetime.start.p0(i64 4, ptr %12) #8
  %56 = load i32, ptr %11, align 4, !tbaa !3
  %57 = xor i32 %56, 1
  store i32 %57, ptr %12, align 4, !tbaa !3
  call void @llvm.lifetime.start.p0(i64 8, ptr %13) #8
  %58 = load ptr, ptr %5, align 8, !tbaa !24
  %59 = getelementptr inbounds nuw %struct.b2World, ptr %58, i32 0, i32 8
  %60 = load i32, ptr %10, align 4, !tbaa !3
  %61 = call ptr @b2JointArray_Get(ptr noundef %59, i32 noundef %60)
  store ptr %61, ptr %13, align 8, !tbaa !186
  %62 = load ptr, ptr %13, align 8, !tbaa !186
  %63 = getelementptr inbounds nuw %struct.b2Joint, ptr %62, i32 0, i32 13
  %64 = load i8, ptr %63, align 1, !tbaa !291, !range !93, !noundef !94
  %65 = trunc i8 %64 to i1
  %66 = zext i1 %65 to i32
  %67 = icmp eq i32 %66, 0
  br i1 %67, label %68, label %79

68:                                               ; preds = %51
  %69 = load ptr, ptr %13, align 8, !tbaa !186
  %70 = getelementptr inbounds nuw %struct.b2Joint, ptr %69, i32 0, i32 4
  %71 = load i32, ptr %12, align 4, !tbaa !3
  %72 = sext i32 %71 to i64
  %73 = getelementptr inbounds [2 x %struct.b2JointEdge], ptr %70, i64 0, i64 %72
  %74 = getelementptr inbounds nuw %struct.b2JointEdge, ptr %73, i32 0, i32 0
  %75 = load i32, ptr %74, align 4, !tbaa !255
  %76 = load i32, ptr %9, align 4, !tbaa !3
  %77 = icmp eq i32 %75, %76
  br i1 %77, label %78, label %79

78:                                               ; preds = %68
  store i1 false, ptr %4, align 1
  store i32 1, ptr %14, align 4
  br label %87

79:                                               ; preds = %68, %51
  %80 = load ptr, ptr %13, align 8, !tbaa !186
  %81 = getelementptr inbounds nuw %struct.b2Joint, ptr %80, i32 0, i32 4
  %82 = load i32, ptr %11, align 4, !tbaa !3
  %83 = sext i32 %82 to i64
  %84 = getelementptr inbounds [2 x %struct.b2JointEdge], ptr %81, i64 0, i64 %83
  %85 = getelementptr inbounds nuw %struct.b2JointEdge, ptr %84, i32 0, i32 2
  %86 = load i32, ptr %85, align 4, !tbaa !187
  store i32 %86, ptr %8, align 4, !tbaa !3
  store i32 0, ptr %14, align 4
  br label %87

87:                                               ; preds = %79, %78
  call void @llvm.lifetime.end.p0(i64 8, ptr %13) #8
  call void @llvm.lifetime.end.p0(i64 4, ptr %12) #8
  call void @llvm.lifetime.end.p0(i64 4, ptr %11) #8
  call void @llvm.lifetime.end.p0(i64 4, ptr %10) #8
  %88 = load i32, ptr %14, align 4
  switch i32 %88, label %91 [
    i32 0, label %89
  ]

89:                                               ; preds = %87
  br label %48, !llvm.loop !292

90:                                               ; preds = %48
  store i1 true, ptr %4, align 1
  store i32 1, ptr %14, align 4
  br label %91

91:                                               ; preds = %90, %87
  call void @llvm.lifetime.end.p0(i64 4, ptr %9) #8
  call void @llvm.lifetime.end.p0(i64 4, ptr %8) #8
  br label %92

92:                                               ; preds = %91, %24
  %93 = load i1, ptr %4, align 1
  ret i1 %93
}