; Function Attrs: nofree norecurse nosync nounwind memory(read, inaccessiblemem: none) uwtable
define hidden noundef zeroext i1 @b2ShouldBodiesCollide(ptr noundef readonly captures(none) %0, ptr noundef readonly captures(none) %1, ptr noundef readonly captures(none) %2) local_unnamed_addr #9 {
  %4 = getelementptr inbounds nuw i8, ptr %1, i64 112
  %5 = load i32, ptr %4, align 8, !tbaa !145
  %.not = icmp eq i32 %5, 2
  br i1 %.not, label %9, label %6

6:                                                ; preds = %3
  %7 = getelementptr inbounds nuw i8, ptr %2, i64 112
  %8 = load i32, ptr %7, align 8, !tbaa !145
  %.not26 = icmp eq i32 %8, 2
  br i1 %.not26, label %9, label %.thread

9:                                                ; preds = %6, %3
  %10 = getelementptr inbounds nuw i8, ptr %1, i64 72
  %11 = load i32, ptr %10, align 8, !tbaa !134
  %12 = getelementptr inbounds nuw i8, ptr %2, i64 72
  %13 = load i32, ptr %12, align 8, !tbaa !134
  %14 = icmp slt i32 %11, %13
  %. = select i1 %14, ptr %2, ptr %1
  %.30 = select i1 %14, ptr %1, ptr %2
  %.022.in = getelementptr inbounds nuw i8, ptr %.30, i64 68
  %.025.in = getelementptr inbounds nuw i8, ptr %., i64 108
  %.025 = load i32, ptr %.025.in, align 4, !tbaa !139
  %.12333 = load i32, ptr %.022.in, align 4, !tbaa !164
  %.not2834 = icmp eq i32 %.12333, -1
  br i1 %.not2834, label %.thread, label %.lr.ph

.lr.ph:                                           ; preds = %9
  %15 = getelementptr inbounds nuw i8, ptr %0, i64 1112
  %.val = load ptr, ptr %15, align 8, !tbaa !156
  br label %16

16:                                               ; preds = %.lr.ph, %31
  %.12335 = phi i32 [ %.12333, %.lr.ph ], [ %.123, %31 ]
  %17 = ashr i32 %.12335, 1
  %18 = and i32 %.12335, 1
  %19 = sext i32 %17 to i64
  %20 = getelementptr inbounds %struct.b2Joint, ptr %.val, i64 %19
  %21 = getelementptr inbounds nuw i8, ptr %20, i64 71
  %22 = load i8, ptr %21, align 1, !tbaa !226, !range !75, !noundef !76
  %23 = icmp eq i8 %22, 0
  br i1 %23, label %24, label %31

24:                                               ; preds = %16
  %25 = xor i32 %18, 1
  %26 = getelementptr inbounds nuw i8, ptr %20, i64 20
  %27 = zext nneg i32 %25 to i64
  %28 = getelementptr inbounds nuw [2 x %struct.b2JointEdge], ptr %26, i64 0, i64 %27
  %29 = load i32, ptr %28, align 4, !tbaa !203
  %30 = icmp eq i32 %29, %.025
  br i1 %30, label %.thread, label %31

31:                                               ; preds = %16, %24
  %32 = getelementptr inbounds nuw i8, ptr %20, i64 20
  %narrow = mul nuw nsw i32 %18, 12
  %33 = zext nneg i32 %narrow to i64
  %34 = getelementptr inbounds nuw i8, ptr %32, i64 %33
  %35 = getelementptr inbounds nuw i8, ptr %34, i64 8
  %.123 = load i32, ptr %35, align 4, !tbaa !164
  %.not28 = icmp eq i32 %.123, -1
  br i1 %.not28, label %.thread, label %16, !llvm.loop !227

.thread:                                          ; preds = %31, %24, %9, %6
  %.021 = phi i1 [ false, %6 ], [ true, %9 ], [ true, %31 ], [ false, %24 ]
  ret i1 %.021
}